; Function Attrs: mustprogress uwtable
define void @_ZN8proxygen15RateLimitFilter18detachThreadLocalsEv(ptr noundef nonnull align 8 dereferenceable(168) %this) local_unnamed_addr #4 align 2 {
entry:
  %add.ptr = getelementptr inbounds i8, ptr %this, i64 72
  tail call void @_ZN5folly16HHWheelTimerBaseINSt6chrono8durationIlSt5ratioILl1ELl1000EEEEE8Callback13cancelTimeoutEv(ptr noundef nonnull align 8 dereferenceable(64) %add.ptr)
  %timer_ = getelementptr inbounds i8, ptr %this, i64 152
  store ptr null, ptr %timer_, align 8
  %numEventsInCurrentInterval_ = getelementptr inbounds i8, ptr %this, i64 136
  store i32 0, ptr %numEventsInCurrentInterval_, align 8
  ret void
}